; Function Attrs: mustprogress uwtable
define hidden void @_ZN4lean14max_sharing_fnC2Ev(ptr noundef nonnull writeonly align 8 captures(none) dereferenceable(8) initializes((0, 8)) %0) unnamed_addr #0 align 2 personality ptr @__gxx_personality_v0 {
  %2 = tail call noalias noundef nonnull dereferenceable(112) ptr @_Znwm(i64 noundef 112) #11
  %3 = getelementptr inbounds nuw i8, ptr %2, i64 48
  store ptr %3, ptr %2, align 8, !tbaa !3
  %4 = getelementptr inbounds nuw i8, ptr %2, i64 8
  store i64 1, ptr %4, align 8, !tbaa !15
  %5 = getelementptr inbounds nuw i8, ptr %2, i64 16
  %6 = getelementptr inbounds nuw i8, ptr %2, i64 32
  tail call void @llvm.memset.p0.i64(ptr noundef nonnull align 8 dereferenceable(16) %5, i8 0, i64 16, i1 false)
  store float 1.000000e+00, ptr %6, align 8, !tbaa !16
  %7 = getelementptr inbounds nuw i8, ptr %2, i64 40
  tail call void @llvm.memset.p0.i64(ptr noundef nonnull align 8 dereferenceable(16) %7, i8 0, i64 16, i1 false)
  %8 = getelementptr inbounds nuw i8, ptr %2, i64 56
  %9 = getelementptr inbounds nuw i8, ptr %2, i64 104
  store ptr %9, ptr %8, align 8, !tbaa !17
  %10 = getelementptr inbounds nuw i8, ptr %2, i64 64
  store i64 1, ptr %10, align 8, !tbaa !19
  %11 = getelementptr inbounds nuw i8, ptr %2, i64 72
  %12 = getelementptr inbounds nuw i8, ptr %2, i64 88
  tail call void @llvm.memset.p0.i64(ptr noundef nonnull align 8 dereferenceable(16) %11, i8 0, i64 16, i1 false)
  store float 1.000000e+00, ptr %12, align 8, !tbaa !16
  %13 = getelementptr inbounds nuw i8, ptr %2, i64 96
  tail call void @llvm.memset.p0.i64(ptr noundef nonnull align 8 dereferenceable(16) %13, i8 0, i64 16, i1 false)
  store ptr %2, ptr %0, align 8, !tbaa !20
  ret void
}